target datalayout = "e-m:e-p270:32:32-p271:32:32-p272:64:64-i64:64-i128:128-f80:128-n8:16:32:64-S128"
target triple = "x86_64-pc-linux-gnu"

%struct.darktable_t = type { %struct.dt_codepath_t, i32, i32, ptr, ptr, ptr, ptr, ptr, ptr, ptr, ptr, ptr, ptr, ptr, ptr, ptr, ptr, ptr, ptr, ptr, ptr, ptr, ptr, ptr, ptr, ptr, ptr, ptr, ptr, ptr, [64 x %struct.dt_pthread_mutex_t], %struct.dt_pthread_mutex_t, %struct.dt_pthread_mutex_t, %struct.dt_pthread_mutex_t, %struct.dt_pthread_mutex_t, %struct.dt_pthread_mutex_t, ptr, ptr, ptr, ptr, ptr, ptr, ptr, ptr, ptr, ptr, ptr, ptr, ptr, %struct.dt_lua_state_t, ptr, double, ptr, i32, [47 x i32], i32, i32, ptr, ptr, %struct.dt_sys_resources_t, %struct.dt_backthumb_t, %struct.dt_gimp_t }
%struct.dt_codepath_t = type { i8, [3 x i8] }
%struct.dt_pthread_mutex_t = type { %union.pthread_mutex_t }
%union.pthread_mutex_t = type { %struct.__pthread_mutex_s }
%struct.__pthread_mutex_s = type { i32, i32, i32, i32, i32, i16, i16, %struct.__pthread_internal_list }
%struct.__pthread_internal_list = type { ptr, ptr }
%struct.dt_lua_state_t = type { i32 }
%struct.dt_sys_resources_t = type { i64, i64, ptr, ptr, i32 }
%struct.dt_backthumb_t = type { double, double, i32, i32, i32, i32 }
%struct.dt_gimp_t = type { i32, ptr, ptr, i32, i32 }
%struct._GdkRGBA = type { double, double, double, double }
%struct._GtkBorder = type { i16, i16, i16, i16 }
%struct.dt_bauhaus_t = type { ptr, %struct.dt_bauhaus_popup_t, ptr, float, float, i32, i32, float, [180 x i8], i32, i32, [2 x i32], i32, ptr, ptr, float, float, float, float, float, ptr, ptr, i32, i32, i32, %struct._GdkRGBA, %struct._GdkRGBA, %struct._GdkRGBA, %struct._GdkRGBA, %struct._GdkRGBA, %struct._GdkRGBA, %struct._GdkRGBA, %struct._GdkRGBA, %struct._GdkRGBA, %struct._GdkRGBA, %struct._GdkRGBA, %struct._GdkRGBA, %struct._GdkRGBA, %struct._GdkRGBA, %struct._GdkRGBA, [3 x %struct._GdkRGBA], [5 x %struct._GdkRGBA] }
%struct.dt_bauhaus_popup_t = type { ptr, ptr, %struct._GtkBorder, %struct._cairo_rectangle_int, i32, i32, i32 }
%struct._cairo_rectangle_int = type { i32, i32, i32, i32 }

@darktable = external global %struct.darktable_t, align 8

; Function Attrs: nounwind uwtable
define void @dt_bauhaus_combobox_add(ptr noundef %0, ptr noundef %1) #0 {
  %3 = alloca ptr, align 8
  %4 = alloca ptr, align 8
  store ptr %0, ptr %3, align 8, !tbaa !15
  store ptr %1, ptr %4, align 8, !tbaa !171
  %5 = load ptr, ptr %3, align 8, !tbaa !15
  %6 = load ptr, ptr %4, align 8, !tbaa !171
  call void @dt_bauhaus_combobox_add_full(ptr noundef %5, ptr noundef %6, i32 noundef 1, ptr noundef null, ptr noundef null, i32 noundef 1)
  ret void
}

; Function Attrs: nounwind uwtable
define void @dt_bauhaus_combobox_add_list(ptr noundef %0, ptr noundef %1, ptr noundef %2) #0 {
  %4 = alloca ptr, align 8
  %5 = alloca ptr, align 8
  %6 = alloca ptr, align 8
  store ptr %0, ptr %4, align 8, !tbaa !15
  store ptr %1, ptr %5, align 8, !tbaa !214
  store ptr %2, ptr %6, align 8, !tbaa !272
  %7 = load ptr, ptr %5, align 8, !tbaa !214
  %8 = icmp ne ptr %7, null
  br i1 %8, label %9, label %16

9:                                                ; preds = %3
  %10 = load ptr, ptr getelementptr inbounds nuw (%struct.darktable_t, ptr @darktable, i32 0, i32 17), align 8, !tbaa !78
  %11 = getelementptr inbounds nuw %struct.dt_bauhaus_t, ptr %10, i32 0, i32 14
  %12 = load ptr, ptr %11, align 8, !tbaa !107
  %13 = load ptr, ptr %5, align 8, !tbaa !214
  %14 = load ptr, ptr %6, align 8, !tbaa !272
  %15 = call i32 @g_hash_table_insert(ptr noundef %12, ptr noundef %13, ptr noundef %14)
  br label %16

16:                                               ; preds = %9, %3
  br label %17

17:                                               ; preds = %26, %16
  %18 = load ptr, ptr %6, align 8, !tbaa !272
  %19 = icmp ne ptr %18, null
  br i1 %19, label %20, label %24

20:                                               ; preds = %17
  %21 = load ptr, ptr %6, align 8, !tbaa !272
  %22 = load ptr, ptr %21, align 8, !tbaa !171
  %23 = icmp ne ptr %22, null
  br label %24

24:                                               ; preds = %20, %17
  %25 = phi i1 [ false, %17 ], [ %23, %20 ]
  br i1 %25, label %26, label %32

26:                                               ; preds = %24
  %27 = load ptr, ptr %4, align 8, !tbaa !15
  %28 = load ptr, ptr %6, align 8, !tbaa !272
  %29 = getelementptr inbounds nuw ptr, ptr %28, i32 1
  store ptr %29, ptr %6, align 8, !tbaa !272
  %30 = load ptr, ptr %28, align 8, !tbaa !171
  %31 = call ptr @g_dpgettext(ptr noundef null, ptr noundef %30, i64 noundef 0)
  call void @dt_bauhaus_combobox_add(ptr noundef %27, ptr noundef %31)
  br label %17

32:                                               ; preds = %24
  ret void
}