; Function Attrs: nounwind uwtable
define void @dt_bauhaus_combobox_add_list(ptr noundef %0, ptr noundef %1, ptr noundef %2) local_unnamed_addr #0 {
  %.not = icmp eq ptr %1, null
  br i1 %.not, label %9, label %4

4:                                                ; preds = %3
  %5 = load ptr, ptr getelementptr inbounds nuw (i8, ptr @darktable, i64 128), align 8, !tbaa !67
  %6 = getelementptr inbounds nuw i8, ptr %5, i64 304
  %7 = load ptr, ptr %6, align 8, !tbaa !87
  %8 = tail call i32 @g_hash_table_insert(ptr noundef %7, ptr noundef nonnull %1, ptr noundef %2) #19
  br label %9

9:                                                ; preds = %4, %3
  %.not911 = icmp eq ptr %2, null
  br i1 %.not911, label %.critedge, label %.lr.ph.preheader

.lr.ph.preheader:                                 ; preds = %9
  %10 = load ptr, ptr %2, align 8, !tbaa !167
  %.not1014 = icmp eq ptr %10, null
  br i1 %.not1014, label %.critedge, label %.lr.ph

.lr.ph:                                           ; preds = %.lr.ph.preheader, %.lr.ph
  %11 = phi ptr [ %14, %.lr.ph ], [ %10, %.lr.ph.preheader ]
  %.01215 = phi ptr [ %12, %.lr.ph ], [ %2, %.lr.ph.preheader ]
  %12 = getelementptr inbounds nuw i8, ptr %.01215, i64 8
  %13 = tail call ptr @g_dpgettext(ptr noundef null, ptr noundef nonnull %11, i64 noundef 0) #19
  tail call void @dt_bauhaus_combobox_add_full(ptr noundef %0, ptr noundef %13, i32 noundef 1, ptr noundef null, ptr noundef null, i32 noundef 1)
  %14 = load ptr, ptr %12, align 8, !tbaa !167
  %.not10 = icmp eq ptr %14, null
  br i1 %.not10, label %.critedge, label %.lr.ph

.critedge:                                        ; preds = %.lr.ph, %.lr.ph.preheader, %9
  ret void
}